target datalayout = "e-m:e-p270:32:32-p271:32:32-p272:64:64-i64:64-i128:128-f80:128-n8:16:32:64-S128"
target triple = "x86_64-pc-linux-gnu"

%class.plic_t = type <{ %class.abstract_device_t, %class.abstract_interrupt_controller_t, %"class.std::vector", i32, i32, i32, [1024 x i8], [32 x i32], [4 x i8] }>
%class.abstract_device_t = type { ptr }
%class.abstract_interrupt_controller_t = type { ptr }
%"class.std::vector" = type { %"struct.std::_Vector_base" }
%"struct.std::_Vector_base" = type { %"struct.std::_Vector_base<plic_context_t, std::allocator<plic_context_t>>::_Vector_impl" }
%"struct.std::_Vector_base<plic_context_t, std::allocator<plic_context_t>>::_Vector_impl" = type { %"struct.std::_Vector_base<plic_context_t, std::allocator<plic_context_t>>::_Vector_impl_data" }
%"struct.std::_Vector_base<plic_context_t, std::allocator<plic_context_t>>::_Vector_impl_data" = type { ptr, ptr, ptr }

; Function Attrs: mustprogress nounwind uwtable
define noundef zeroext i1 @_ZN6plic_t13priority_readEmPj(ptr noundef nonnull align 8 dereferenceable(1204) %0, i64 noundef %1, ptr noundef %2) #6 align 2 {
  %4 = alloca ptr, align 8
  %5 = alloca i64, align 8
  %6 = alloca ptr, align 8
  %7 = alloca i32, align 4
  store ptr %0, ptr %4, align 8, !tbaa !3
  store i64 %1, ptr %5, align 8, !tbaa !61
  store ptr %2, ptr %6, align 8, !tbaa !65
  %8 = load ptr, ptr %4, align 8
  call void @llvm.lifetime.start.p0(i64 4, ptr %7) #3
  %9 = load i64, ptr %5, align 8, !tbaa !61
  %10 = lshr i64 %9, 2
  %11 = trunc i64 %10 to i32
  store i32 %11, ptr %7, align 4, !tbaa !10
  %12 = load i32, ptr %7, align 4, !tbaa !10
  %13 = icmp ugt i32 %12, 0
  br i1 %13, label %14, label %27

14:                                               ; preds = %3
  %15 = load i32, ptr %7, align 4, !tbaa !10
  %16 = getelementptr inbounds nuw %class.plic_t, ptr %8, i32 0, i32 3
  %17 = load i32, ptr %16, align 8, !tbaa !14
  %18 = icmp ult i32 %15, %17
  br i1 %18, label %19, label %27

19:                                               ; preds = %14
  %20 = getelementptr inbounds nuw %class.plic_t, ptr %8, i32 0, i32 6
  %21 = load i32, ptr %7, align 4, !tbaa !10
  %22 = zext i32 %21 to i64
  %23 = getelementptr inbounds nuw [1024 x i8], ptr %20, i64 0, i64 %22
  %24 = load i8, ptr %23, align 1, !tbaa !55
  %25 = zext i8 %24 to i32
  %26 = load ptr, ptr %6, align 8, !tbaa !65
  store i32 %25, ptr %26, align 4, !tbaa !10
  br label %29

27:                                               ; preds = %14, %3
  %28 = load ptr, ptr %6, align 8, !tbaa !65
  store i32 0, ptr %28, align 4, !tbaa !10
  br label %29

29:                                               ; preds = %27, %19
  call void @llvm.lifetime.end.p0(i64 4, ptr %7) #3
  ret i1 true
}