; Function Attrs: mustprogress nofree norecurse nosync nounwind willreturn memory(argmem: readwrite) uwtable
define noundef zeroext i1 @_ZN6plic_t13priority_readEmPj(ptr noundef nonnull readonly align 8 captures(none) dereferenceable(1204) %0, i64 noundef %1, ptr noundef writeonly captures(none) initializes((0, 4)) %2) local_unnamed_addr #8 align 2 {
  %4 = lshr i64 %1, 2
  %5 = trunc i64 %4 to i32
  %.not = icmp ne i32 %5, 0
  %6 = getelementptr inbounds nuw i8, ptr %0, i64 40
  %7 = load i32, ptr %6, align 8
  %8 = icmp ugt i32 %7, %5
  %or.cond = select i1 %.not, i1 %8, i1 false
  br i1 %or.cond, label %9, label %15

9:                                                ; preds = %3
  %10 = getelementptr inbounds nuw i8, ptr %0, i64 52
  %11 = and i64 %4, 4294967295
  %12 = getelementptr inbounds nuw [1024 x i8], ptr %10, i64 0, i64 %11
  %13 = load i8, ptr %12, align 1, !tbaa !32
  %14 = zext i8 %13 to i32
  br label %15

15:                                               ; preds = %3, %9
  %storemerge = phi i32 [ %14, %9 ], [ 0, %3 ]
  store i32 %storemerge, ptr %2, align 4, !tbaa !53
  ret i1 true
}